target datalayout = "e-m:e-p270:32:32-p271:32:32-p272:64:64-i64:64-i128:128-f80:128-n8:16:32:64-S128"
target triple = "x86_64-pc-linux-gnu"

%struct.MvcCoverStruct = type { i32, i32, i32, %struct.MvcListStruct, ptr, i32, ptr, ptr, ptr }
%struct.MvcListStruct = type { ptr, ptr, i32 }
%struct.MvcCubeStruct = type { ptr, i32, i32, [1 x i32] }

; Function Attrs: nounwind uwtable
define ptr @Mvc_CoverCreateTautology(ptr noundef %0) #0 {
  %2 = alloca ptr, align 8
  %3 = alloca ptr, align 8
  %4 = alloca ptr, align 8
  %5 = alloca i32, align 4
  %6 = alloca ptr, align 8
  store ptr %0, ptr %2, align 8, !tbaa !3
  call void @llvm.lifetime.start.p0(i64 8, ptr %3) #4
  call void @llvm.lifetime.start.p0(i64 8, ptr %4) #4
  %7 = load ptr, ptr %2, align 8, !tbaa !3
  %8 = getelementptr inbounds nuw %struct.MvcCoverStruct, ptr %7, i32 0, i32 8
  %9 = load ptr, ptr %8, align 8, !tbaa !34
  %10 = load ptr, ptr %2, align 8, !tbaa !3
  %11 = getelementptr inbounds nuw %struct.MvcCoverStruct, ptr %10, i32 0, i32 2
  %12 = load i32, ptr %11, align 8, !tbaa !16
  %13 = call ptr @Mvc_CoverAlloc(ptr noundef %9, i32 noundef %12)
  store ptr %13, ptr %4, align 8, !tbaa !3
  %14 = load ptr, ptr %4, align 8, !tbaa !3
  %15 = call ptr @Mvc_CubeAlloc(ptr noundef %14)
  store ptr %15, ptr %3, align 8, !tbaa !26
  %16 = load ptr, ptr %3, align 8, !tbaa !26
  %17 = getelementptr inbounds nuw %struct.MvcCubeStruct, ptr %16, i32 0, i32 1
  %18 = load i32, ptr %17, align 8
  %19 = and i32 %18, 16777215
  %20 = icmp eq i32 %19, 0
  br i1 %20, label %21, label %31

21:                                               ; preds = %1
  %22 = load ptr, ptr %3, align 8, !tbaa !26
  %23 = getelementptr inbounds nuw %struct.MvcCubeStruct, ptr %22, i32 0, i32 1
  %24 = load i32, ptr %23, align 8
  %25 = lshr i32 %24, 24
  %26 = and i32 %25, 63
  %27 = lshr i32 -1, %26
  %28 = load ptr, ptr %3, align 8, !tbaa !26
  %29 = getelementptr inbounds nuw %struct.MvcCubeStruct, ptr %28, i32 0, i32 3
  %30 = getelementptr inbounds [1 x i32], ptr %29, i64 0, i64 0
  store i32 %27, ptr %30, align 8, !tbaa !25
  br label %84

31:                                               ; preds = %1
  %32 = load ptr, ptr %3, align 8, !tbaa !26
  %33 = getelementptr inbounds nuw %struct.MvcCubeStruct, ptr %32, i32 0, i32 1
  %34 = load i32, ptr %33, align 8
  %35 = and i32 %34, 16777215
  %36 = icmp eq i32 %35, 1
  br i1 %36, label %37, label %50

37:                                               ; preds = %31
  %38 = load ptr, ptr %3, align 8, !tbaa !26
  %39 = getelementptr inbounds nuw %struct.MvcCubeStruct, ptr %38, i32 0, i32 3
  %40 = getelementptr inbounds [1 x i32], ptr %39, i64 0, i64 0
  store i32 -1, ptr %40, align 8, !tbaa !25
  %41 = load ptr, ptr %3, align 8, !tbaa !26
  %42 = getelementptr inbounds nuw %struct.MvcCubeStruct, ptr %41, i32 0, i32 1
  %43 = load i32, ptr %42, align 8
  %44 = lshr i32 %43, 24
  %45 = and i32 %44, 63
  %46 = lshr i32 -1, %45
  %47 = load ptr, ptr %3, align 8, !tbaa !26
  %48 = getelementptr inbounds nuw %struct.MvcCubeStruct, ptr %47, i32 0, i32 3
  %49 = getelementptr inbounds [1 x i32], ptr %48, i64 0, i64 1
  store i32 %46, ptr %49, align 4, !tbaa !25
  br label %83

50:                                               ; preds = %31
  call void @llvm.lifetime.start.p0(i64 4, ptr %5) #4
  %51 = load ptr, ptr %3, align 8, !tbaa !26
  %52 = getelementptr inbounds nuw %struct.MvcCubeStruct, ptr %51, i32 0, i32 1
  %53 = load i32, ptr %52, align 8
  %54 = lshr i32 %53, 24
  %55 = and i32 %54, 63
  %56 = lshr i32 -1, %55
  %57 = load ptr, ptr %3, align 8, !tbaa !26
  %58 = getelementptr inbounds nuw %struct.MvcCubeStruct, ptr %57, i32 0, i32 3
  %59 = load ptr, ptr %3, align 8, !tbaa !26
  %60 = getelementptr inbounds nuw %struct.MvcCubeStruct, ptr %59, i32 0, i32 1
  %61 = load i32, ptr %60, align 8
  %62 = and i32 %61, 16777215
  %63 = zext i32 %62 to i64
  %64 = getelementptr inbounds nuw [1 x i32], ptr %58, i64 0, i64 %63
  store i32 %56, ptr %64, align 4, !tbaa !25
  %65 = load ptr, ptr %3, align 8, !tbaa !26
  %66 = getelementptr inbounds nuw %struct.MvcCubeStruct, ptr %65, i32 0, i32 1
  %67 = load i32, ptr %66, align 8
  %68 = and i32 %67, 16777215
  %69 = sub nsw i32 %68, 1
  store i32 %69, ptr %5, align 4, !tbaa !25
  br label %70

70:                                               ; preds = %79, %50
  %71 = load i32, ptr %5, align 4, !tbaa !25
  %72 = icmp sge i32 %71, 0
  br i1 %72, label %73, label %82

73:                                               ; preds = %70
  %74 = load ptr, ptr %3, align 8, !tbaa !26
  %75 = getelementptr inbounds nuw %struct.MvcCubeStruct, ptr %74, i32 0, i32 3
  %76 = load i32, ptr %5, align 4, !tbaa !25
  %77 = sext i32 %76 to i64
  %78 = getelementptr inbounds [1 x i32], ptr %75, i64 0, i64 %77
  store i32 -1, ptr %78, align 4, !tbaa !25
  br label %79

79:                                               ; preds = %73
  %80 = load i32, ptr %5, align 4, !tbaa !25
  %81 = add nsw i32 %80, -1
  store i32 %81, ptr %5, align 4, !tbaa !25
  br label %70, !llvm.loop !35

82:                                               ; preds = %70
  call void @llvm.lifetime.end.p0(i64 4, ptr %5) #4
  br label %83

83:                                               ; preds = %82, %37
  br label %84

84:                                               ; preds = %83, %21
  call void @llvm.lifetime.start.p0(i64 8, ptr %6) #4
  %85 = load ptr, ptr %4, align 8, !tbaa !3
  %86 = getelementptr inbounds nuw %struct.MvcCoverStruct, ptr %85, i32 0, i32 3
  store ptr %86, ptr %6, align 8, !tbaa !20
  %87 = load ptr, ptr %6, align 8, !tbaa !20
  %88 = getelementptr inbounds nuw %struct.MvcListStruct, ptr %87, i32 0, i32 0
  %89 = load ptr, ptr %88, align 8, !tbaa !23
  %90 = icmp eq ptr %89, null
  br i1 %90, label %91, label %95

91:                                               ; preds = %84
  %92 = load ptr, ptr %3, align 8, !tbaa !26
  %93 = load ptr, ptr %6, align 8, !tbaa !20
  %94 = getelementptr inbounds nuw %struct.MvcListStruct, ptr %93, i32 0, i32 0
  store ptr %92, ptr %94, align 8, !tbaa !23
  br label %101

95:                                               ; preds = %84
  %96 = load ptr, ptr %3, align 8, !tbaa !26
  %97 = load ptr, ptr %6, align 8, !tbaa !20
  %98 = getelementptr inbounds nuw %struct.MvcListStruct, ptr %97, i32 0, i32 1
  %99 = load ptr, ptr %98, align 8, !tbaa !24
  %100 = getelementptr inbounds nuw %struct.MvcCubeStruct, ptr %99, i32 0, i32 0
  store ptr %96, ptr %100, align 8, !tbaa !30
  br label %101

101:                                              ; preds = %95, %91
  %102 = load ptr, ptr %3, align 8, !tbaa !26
  %103 = load ptr, ptr %6, align 8, !tbaa !20
  %104 = getelementptr inbounds nuw %struct.MvcListStruct, ptr %103, i32 0, i32 1
  store ptr %102, ptr %104, align 8, !tbaa !24
  %105 = load ptr, ptr %3, align 8, !tbaa !26
  %106 = getelementptr inbounds nuw %struct.MvcCubeStruct, ptr %105, i32 0, i32 0
  store ptr null, ptr %106, align 8, !tbaa !30
  %107 = load ptr, ptr %6, align 8, !tbaa !20
  %108 = getelementptr inbounds nuw %struct.MvcListStruct, ptr %107, i32 0, i32 2
  %109 = load i32, ptr %108, align 8, !tbaa !22
  %110 = add nsw i32 %109, 1
  store i32 %110, ptr %108, align 8, !tbaa !22
  call void @llvm.lifetime.end.p0(i64 8, ptr %6) #4
  %111 = load ptr, ptr %4, align 8, !tbaa !3
  call void @llvm.lifetime.end.p0(i64 8, ptr %4) #4
  call void @llvm.lifetime.end.p0(i64 8, ptr %3) #4
  ret ptr %111
}