; Function Attrs: nounwind uwtable
define noundef ptr @Mvc_CoverCreateTautology(ptr noundef readonly captures(none) %0) local_unnamed_addr #7 {
  %2 = getelementptr inbounds nuw i8, ptr %0, i64 72
  %3 = load ptr, ptr %2, align 8, !tbaa !29
  %4 = getelementptr inbounds nuw i8, ptr %0, i64 8
  %5 = load i32, ptr %4, align 8, !tbaa !14
  %6 = tail call ptr @Mvc_CoverAlloc(ptr noundef %3, i32 noundef %5) #10
  %7 = tail call ptr @Mvc_CubeAlloc(ptr noundef %6) #10
  %8 = getelementptr inbounds nuw i8, ptr %7, i64 8
  %9 = load i32, ptr %8, align 8
  %10 = and i32 %9, 16777215
  switch i32 %10, label %.lr.ph.preheader [
    i32 0, label %11
    i32 1, label %16
  ]

11:                                               ; preds = %1
  %12 = lshr exact i32 %9, 24
  %13 = and i32 %12, 63
  %14 = lshr i32 -1, %13
  %15 = getelementptr inbounds nuw i8, ptr %7, i64 16
  store i32 %14, ptr %15, align 8, !tbaa !23
  br label %.loopexit

16:                                               ; preds = %1
  %17 = getelementptr inbounds nuw i8, ptr %7, i64 16
  store i32 -1, ptr %17, align 8, !tbaa !23
  %18 = lshr i32 %9, 24
  %19 = and i32 %18, 63
  %20 = lshr i32 -1, %19
  %21 = getelementptr inbounds nuw i8, ptr %7, i64 20
  store i32 %20, ptr %21, align 4, !tbaa !23
  br label %.loopexit

.lr.ph.preheader:                                 ; preds = %1
  %22 = lshr i32 %9, 24
  %23 = and i32 %22, 63
  %24 = lshr i32 -1, %23
  %25 = getelementptr inbounds nuw i8, ptr %7, i64 16
  %26 = zext nneg i32 %10 to i64
  %27 = getelementptr inbounds nuw [1 x i32], ptr %25, i64 0, i64 %26
  store i32 %24, ptr %27, align 4, !tbaa !23
  %28 = shl i32 %9, 2
  %29 = and i32 %28, 67108860
  %30 = zext nneg i32 %29 to i64
  tail call void @llvm.memset.p0.i64(ptr nonnull align 4 %25, i8 -1, i64 %30, i1 false), !tbaa !23
  br label %.loopexit

.loopexit:                                        ; preds = %.lr.ph.preheader, %16, %11
  %31 = getelementptr inbounds nuw i8, ptr %6, i64 16
  %32 = load ptr, ptr %31, align 8, !tbaa !19
  %33 = icmp eq ptr %32, null
  br i1 %33, label %34, label %35

34:                                               ; preds = %.loopexit
  store ptr %7, ptr %31, align 8, !tbaa !19
  br label %38

35:                                               ; preds = %.loopexit
  %36 = getelementptr inbounds nuw i8, ptr %6, i64 24
  %37 = load ptr, ptr %36, align 8, !tbaa !20
  store ptr %7, ptr %37, align 8, !tbaa !26
  br label %38

38:                                               ; preds = %35, %34
  %39 = getelementptr inbounds nuw i8, ptr %6, i64 24
  store ptr %7, ptr %39, align 8, !tbaa !20
  store ptr null, ptr %7, align 8, !tbaa !26
  %40 = getelementptr inbounds nuw i8, ptr %6, i64 32
  %41 = load i32, ptr %40, align 8, !tbaa !18
  %42 = add nsw i32 %41, 1
  store i32 %42, ptr %40, align 8, !tbaa !18
  ret ptr %6
}